; Function Attrs: nounwind uwtable
define dso_local noundef ptr @psql_scan_create(ptr noundef %0) local_unnamed_addr #0 {
  %2 = tail call ptr @pg_malloc0(i64 noundef 128) #27
  %3 = getelementptr inbounds nuw i8, ptr %2, i64 112
  store ptr %0, ptr %3, align 8
  %calloc.i = tail call dereferenceable_or_null(152) ptr @calloc(i64 1, i64 152)
  store ptr %calloc.i, ptr %2, align 8
  %4 = icmp eq ptr %calloc.i, null
  br i1 %4, label %5, label %psql_yylex_init.exit

5:                                                ; preds = %1
  %6 = tail call ptr @__errno_location() #29
  store i32 12, ptr %6, align 4
  %.pre = load ptr, ptr %2, align 8
  br label %psql_yylex_init.exit

psql_yylex_init.exit:                             ; preds = %1, %5
  %7 = phi ptr [ %calloc.i, %1 ], [ %.pre, %5 ]
  store ptr %2, ptr %7, align 8
  %8 = getelementptr inbounds nuw i8, ptr %2, i64 72
  store i32 0, ptr %8, align 8
  %9 = getelementptr inbounds nuw i8, ptr %2, i64 80
  store i32 0, ptr %9, align 8
  %10 = getelementptr inbounds nuw i8, ptr %2, i64 84
  store i32 0, ptr %10, align 4
  %11 = getelementptr inbounds nuw i8, ptr %2, i64 88
  %12 = load ptr, ptr %11, align 8
  %.not.i = icmp eq ptr %12, null
  br i1 %.not.i, label %psql_scan_reset.exit, label %13

13:                                               ; preds = %psql_yylex_init.exit
  tail call void @free(ptr noundef nonnull %12) #27
  br label %psql_scan_reset.exit

psql_scan_reset.exit:                             ; preds = %psql_yylex_init.exit, %13
  store ptr null, ptr %11, align 8
  %14 = getelementptr inbounds nuw i8, ptr %2, i64 96
  store i32 0, ptr %14, align 8
  %15 = getelementptr inbounds nuw i8, ptr %2, i64 104
  store i32 0, ptr %15, align 8
  ret ptr %2
}